target datalayout = "e-m:e-p270:32:32-p271:32:32-p272:64:64-i64:64-i128:128-f80:128-n8:16:32:64-S128"
target triple = "x86_64-pc-linux-gnu"

@.str.6 = private unnamed_addr constant [1 x i8] zeroinitializer, align 1
@.str.12 = private unnamed_addr constant [29 x i8] c"symbolic ref is dangling: %s\00", align 1

; Function Attrs: nounwind uwtable
define internal i32 @add_one_ref(ptr noundef %0, ptr noundef %1, ptr noundef %2, i32 noundef %3, ptr noundef %4) #0 {
  %6 = alloca i32, align 4
  %7 = alloca ptr, align 8
  %8 = alloca ptr, align 8
  %9 = alloca ptr, align 8
  %10 = alloca i32, align 4
  %11 = alloca ptr, align 8
  %12 = alloca ptr, align 8
  %13 = alloca ptr, align 8
  %14 = alloca i32, align 4
  store ptr %0, ptr %7, align 8, !tbaa !70
  store ptr %1, ptr %8, align 8, !tbaa !70
  store ptr %2, ptr %9, align 8, !tbaa !69
  store i32 %3, ptr %10, align 4, !tbaa !12
  store ptr %4, ptr %11, align 8, !tbaa !11
  call void @llvm.lifetime.start.p0(i64 8, ptr %12) #9
  %15 = load ptr, ptr %11, align 8, !tbaa !11
  store ptr %15, ptr %12, align 8, !tbaa !4
  call void @llvm.lifetime.start.p0(i64 8, ptr %13) #9
  %16 = load i32, ptr %10, align 4, !tbaa !12
  %17 = and i32 %16, 1
  %18 = icmp ne i32 %17, 0
  br i1 %18, label %19, label %25

19:                                               ; preds = %5
  %20 = load i32, ptr %10, align 4, !tbaa !12
  %21 = and i32 %20, 4
  %22 = icmp ne i32 %21, 0
  br i1 %22, label %23, label %25

23:                                               ; preds = %19
  %24 = load ptr, ptr %7, align 8, !tbaa !70
  call void (ptr, ...) @warning(ptr noundef @.str.12, ptr noundef %24)
  store i32 0, ptr %6, align 4
  store i32 1, ptr %14, align 4
  br label %31

25:                                               ; preds = %19, %5
  %26 = load ptr, ptr %9, align 8, !tbaa !69
  %27 = load ptr, ptr %7, align 8, !tbaa !70
  %28 = call ptr @parse_object_or_die(ptr noundef %26, ptr noundef %27)
  store ptr %28, ptr %13, align 8, !tbaa !72
  %29 = load ptr, ptr %12, align 8, !tbaa !4
  %30 = load ptr, ptr %13, align 8, !tbaa !72
  call void @add_pending_object(ptr noundef %29, ptr noundef %30, ptr noundef @.str.6)
  store i32 0, ptr %6, align 4
  store i32 1, ptr %14, align 4
  br label %31

31:                                               ; preds = %25, %23
  call void @llvm.lifetime.end.p0(i64 8, ptr %13) #9
  call void @llvm.lifetime.end.p0(i64 8, ptr %12) #9
  %32 = load i32, ptr %6, align 4
  ret i32 %32
}