; Function Attrs: nounwind uwtable
define internal noundef i32 @add_one_ref(ptr noundef %0, ptr readnone captures(none) %1, ptr noundef %2, i32 noundef %3, ptr noundef %4) #0 {
  %6 = and i32 %3, 5
  %or.cond.not = icmp eq i32 %6, 5
  br i1 %or.cond.not, label %7, label %8

7:                                                ; preds = %5
  tail call void (ptr, ...) @warning(ptr noundef nonnull @.str.12, ptr noundef %0) #11
  br label %10

8:                                                ; preds = %5
  %9 = tail call ptr @parse_object_or_die(ptr noundef %2, ptr noundef %0) #11
  tail call void @add_pending_object(ptr noundef %4, ptr noundef %9, ptr noundef nonnull @.str.6) #11
  br label %10

10:                                               ; preds = %8, %7
  ret i32 0
}